target datalayout = "e-m:e-p270:32:32-p271:32:32-p272:64:64-i64:64-i128:128-f80:128-n8:16:32:64-S128"
target triple = "x86_64-unknown-linux-gnu"

%"class.hermes::sem::Keywords" = type { ptr, ptr, ptr, ptr, ptr, ptr, ptr, ptr, ptr, ptr, ptr, ptr, ptr, ptr }
%"class.hermes::sem::SemanticValidator" = type { ptr, ptr, %"class.hermes::SourceErrorManager::SaveAndBufferMessages", ptr, i32, %"class.hermes::sem::Keywords", ptr, i8, i8, i32 }
%"class.hermes::SourceErrorManager::SaveAndBufferMessages" = type { ptr }
%"class.std::variant" = type { %"struct.std::__detail::__variant::_Variant_base.base", [7 x i8] }
%"struct.std::__detail::__variant::_Variant_base.base" = type { %"struct.std::__detail::__variant::_Move_assign_base.base" }
%"struct.std::__detail::__variant::_Move_assign_base.base" = type { %"struct.std::__detail::__variant::_Copy_assign_base.base" }
%"struct.std::__detail::__variant::_Copy_assign_base.base" = type { %"struct.std::__detail::__variant::_Move_ctor_base.base" }
%"struct.std::__detail::__variant::_Move_ctor_base.base" = type { %"struct.std::__detail::__variant::_Copy_ctor_base.base" }
%"struct.std::__detail::__variant::_Copy_ctor_base.base" = type { %"struct.std::__detail::__variant::_Variant_storage.base" }
%"struct.std::__detail::__variant::_Variant_storage.base" = type <{ %"union.std::__detail::__variant::_Variadic_union", i8 }>
%"union.std::__detail::__variant::_Variadic_union" = type { %"union.std::__detail::__variant::_Variadic_union.226" }
%"union.std::__detail::__variant::_Variadic_union.226" = type { %"union.std::__detail::__variant::_Variadic_union.228" }
%"union.std::__detail::__variant::_Variadic_union.228" = type { %"struct.std::__detail::__variant::_Uninitialized.229" }
%"struct.std::__detail::__variant::_Uninitialized.229" = type { ptr }
%"class.hermes::sem::FunctionContext" = type { ptr, ptr, ptr, ptr, ptr, ptr, ptr, ptr, ptr, ptr, i8, i32, %"class.llvh::DenseMap.70", %"class.hermes::sem::BlockContext", %"class.llvh::MapVector" }
%"class.llvh::DenseMap.70" = type <{ ptr, i32, i32, i32, [4 x i8] }>
%"class.hermes::sem::BlockContext" = type { ptr, ptr, ptr, ptr, i64 }
%"class.llvh::MapVector" = type { %"class.llvh::DenseMap.73", %"class.std::vector.76" }
%"class.llvh::DenseMap.73" = type <{ ptr, i32, i32, i32, [4 x i8] }>
%"class.std::vector.76" = type { %"struct.std::_Vector_base.77" }
%"struct.std::_Vector_base.77" = type { %"struct.std::_Vector_base<std::pair<const hermes::UniqueString *, llvh::SmallVector<hermes::ESTree::FunctionDeclarationNode *, 4>>, std::allocator<std::pair<const hermes::UniqueString *, llvh::SmallVector<hermes::ESTree::FunctionDeclarationNode *, 4>>>>::_Vector_impl" }
%"struct.std::_Vector_base<std::pair<const hermes::UniqueString *, llvh::SmallVector<hermes::ESTree::FunctionDeclarationNode *, 4>>, std::allocator<std::pair<const hermes::UniqueString *, llvh::SmallVector<hermes::ESTree::FunctionDeclarationNode *, 4>>>>::_Vector_impl" = type { %"struct.std::_Vector_base<std::pair<const hermes::UniqueString *, llvh::SmallVector<hermes::ESTree::FunctionDeclarationNode *, 4>>, std::allocator<std::pair<const hermes::UniqueString *, llvh::SmallVector<hermes::ESTree::FunctionDeclarationNode *, 4>>>>::_Vector_impl_data" }
%"struct.std::_Vector_base<std::pair<const hermes::UniqueString *, llvh::SmallVector<hermes::ESTree::FunctionDeclarationNode *, 4>>, std::allocator<std::pair<const hermes::UniqueString *, llvh::SmallVector<hermes::ESTree::FunctionDeclarationNode *, 4>>>>::_Vector_impl_data" = type { ptr, ptr, ptr }
%"class.llvh::SmallVectorBase" = type { ptr, i32, i32 }
%"struct.llvh::AlignedCharArray.82" = type { [8 x i8] }
%"class.llvh::SmallVector.83" = type { %"class.llvh::SmallVectorImpl.84", %"struct.llvh::SmallVectorStorage.87" }
%"class.llvh::SmallVectorImpl.84" = type { %"class.llvh::SmallVectorTemplateBase.85" }
%"class.llvh::SmallVectorTemplateBase.85" = type { %"class.llvh::SmallVectorTemplateCommon.86" }
%"class.llvh::SmallVectorTemplateCommon.86" = type { %"class.llvh::SmallVectorBase" }
%"struct.llvh::SmallVectorStorage.87" = type { [4 x %"struct.llvh::AlignedCharArrayUnion.88"] }
%"struct.llvh::AlignedCharArrayUnion.88" = type { %"struct.llvh::AlignedCharArray.89" }
%"struct.llvh::AlignedCharArray.89" = type { [24 x i8] }
%"class.hermes::ESTree::Node" = type { %"class.llvh::ilist_node", i32, i32, %"class.llvh::SMRange", %"class.llvh::SMLoc" }
%"class.llvh::ilist_node" = type { %"class.llvh::ilist_node_impl" }
%"class.llvh::ilist_node_impl" = type { %"class.llvh::ilist_node_base" }
%"class.llvh::ilist_node_base" = type { ptr, ptr }
%"class.llvh::SMRange" = type { %"class.llvh::SMLoc", %"class.llvh::SMLoc" }
%"class.llvh::SMLoc" = type { ptr }
%"class.hermes::ESTree::StatementNode" = type { %"class.hermes::ESTree::Node" }
%"class.hermes::sem::FunctionInfo" = type <{ %"class.llvh::SmallVector.83", %"class.llvh::SmallVector.83", %"class.llvh::DenseMap.90", %"class.llvh::DenseMap.93", %"class.llvh::SmallVector.96", i8, i8, i8, i8, i32, i8, [7 x i8] }>
%"class.llvh::DenseMap.90" = type <{ ptr, i32, i32, i32, [4 x i8] }>
%"class.llvh::DenseMap.93" = type <{ ptr, i32, i32, i32, [4 x i8] }>
%"class.llvh::SmallVector.96" = type { %"class.llvh::SmallVectorImpl.97", %"struct.llvh::SmallVectorStorage.100" }
%"class.llvh::SmallVectorImpl.97" = type { %"class.llvh::SmallVectorTemplateBase.98" }
%"class.llvh::SmallVectorTemplateBase.98" = type { %"class.llvh::SmallVectorTemplateCommon.99" }
%"class.llvh::SmallVectorTemplateCommon.99" = type { %"class.llvh::SmallVectorBase" }
%"struct.llvh::SmallVectorStorage.100" = type { [2 x %"struct.llvh::AlignedCharArrayUnion.101"] }
%"struct.llvh::AlignedCharArrayUnion.101" = type { %"struct.llvh::AlignedCharArray.82" }
%"class.hermes::ESTree::LoopStatementNode.base" = type <{ %"class.hermes::ESTree::StatementNode", %"class.hermes::ESTree::LoopStatementDecoration" }>
%"class.hermes::ESTree::LoopStatementDecoration" = type { %"class.hermes::ESTree::LabelDecorationBase" }
%"class.hermes::ESTree::LabelDecorationBase" = type { i32 }
%"struct.llvh::SaveAndRestore" = type { ptr, ptr }
%"struct.llvh::SaveAndRestore.102" = type { ptr, ptr }
%"class.hermes::ESTree::WhileStatementNode" = type { %"class.hermes::ESTree::LoopStatementNode.base", ptr, ptr }

; Function Attrs: mustprogress nounwind uwtable
define linkonce_odr hidden void @_ZN6hermes6ESTree24RecursiveVisitorDispatchINS_3sem17SemanticValidatorELb1EE13visitChildrenERS3_PNS0_18WhileStatementNodeE(ptr noundef nonnull align 8 dereferenceable(168) %v, ptr noundef %node) #0 comdat align 2 {
entry:
  %v.addr = alloca ptr, align 8
  %node.addr = alloca ptr, align 8
  %coerce = alloca %"class.std::variant", align 8
  %coerce2 = alloca %"class.std::variant", align 8
  store ptr %v, ptr %v.addr, align 8
  store ptr %node, ptr %node.addr, align 8
  %0 = load ptr, ptr %v.addr, align 8
  %1 = load ptr, ptr %node.addr, align 8
  %_body = getelementptr inbounds %"class.hermes::ESTree::WhileStatementNode", ptr %1, i32 0, i32 1
  %2 = load ptr, ptr %_body, align 8
  %3 = load ptr, ptr %node.addr, align 8
  %call = call { ptr, i8 } @_ZN6hermes6ESTree24RecursiveVisitorDispatchINS_3sem17SemanticValidatorELb1EE5visitERS3_PNS0_4NodeES7_(ptr noundef nonnull align 8 dereferenceable(168) %0, ptr noundef %2, ptr noundef %3)
  %4 = getelementptr inbounds { ptr, i8 }, ptr %coerce, i32 0, i32 0
  %5 = extractvalue { ptr, i8 } %call, 0
  store ptr %5, ptr %4, align 8
  %6 = getelementptr inbounds { ptr, i8 }, ptr %coerce, i32 0, i32 1
  %7 = extractvalue { ptr, i8 } %call, 1
  store i8 %7, ptr %6, align 8
  %8 = load ptr, ptr %v.addr, align 8
  %9 = load ptr, ptr %node.addr, align 8
  %_test = getelementptr inbounds %"class.hermes::ESTree::WhileStatementNode", ptr %9, i32 0, i32 2
  %10 = load ptr, ptr %_test, align 8
  %11 = load ptr, ptr %node.addr, align 8
  %call1 = call { ptr, i8 } @_ZN6hermes6ESTree24RecursiveVisitorDispatchINS_3sem17SemanticValidatorELb1EE5visitERS3_PNS0_4NodeES7_(ptr noundef nonnull align 8 dereferenceable(168) %8, ptr noundef %10, ptr noundef %11)
  %12 = getelementptr inbounds { ptr, i8 }, ptr %coerce2, i32 0, i32 0
  %13 = extractvalue { ptr, i8 } %call1, 0
  store ptr %13, ptr %12, align 8
  %14 = getelementptr inbounds { ptr, i8 }, ptr %coerce2, i32 0, i32 1
  %15 = extractvalue { ptr, i8 } %call1, 1
  store i8 %15, ptr %14, align 8
  ret void
}

; Function Attrs: mustprogress nounwind uwtable
define linkonce_odr hidden noundef i32 @_ZN6hermes3sem12FunctionInfo13allocateLabelEv(ptr noundef nonnull align 8 dereferenceable(313) %this) #0 comdat align 2 {
entry:
  %this.addr = alloca ptr, align 8
  store ptr %this, ptr %this.addr, align 8
  %this1 = load ptr, ptr %this.addr, align 8
  %labelCount = getelementptr inbounds %"class.hermes::sem::FunctionInfo", ptr %this1, i32 0, i32 9
  %0 = load i32, ptr %labelCount, align 4
  %inc = add i32 %0, 1
  store i32 %inc, ptr %labelCount, align 4
  ret i32 %0
}

; Function Attrs: mustprogress nounwind uwtable
define linkonce_odr hidden void @_ZN4llvh14SaveAndRestoreIPN6hermes6ESTree17LoopStatementNodeEED2Ev(ptr noundef nonnull align 8 dereferenceable(16) %this) unnamed_addr #0 comdat align 2 {
entry:
  %this.addr = alloca ptr, align 8
  store ptr %this, ptr %this.addr, align 8
  %this1 = load ptr, ptr %this.addr, align 8
  %OldValue = getelementptr inbounds %"struct.llvh::SaveAndRestore", ptr %this1, i32 0, i32 1
  %0 = load ptr, ptr %OldValue, align 8
  %X = getelementptr inbounds %"struct.llvh::SaveAndRestore", ptr %this1, i32 0, i32 0
  %1 = load ptr, ptr %X, align 8
  store ptr %0, ptr %1, align 8
  ret void
}

; Function Attrs: mustprogress nounwind uwtable
define linkonce_odr hidden void @_ZN4llvh14SaveAndRestoreIPN6hermes6ESTree13StatementNodeEED2Ev(ptr noundef nonnull align 8 dereferenceable(16) %this) unnamed_addr #0 comdat align 2 {
entry:
  %this.addr = alloca ptr, align 8
  store ptr %this, ptr %this.addr, align 8
  %this1 = load ptr, ptr %this.addr, align 8
  %OldValue = getelementptr inbounds %"struct.llvh::SaveAndRestore.102", ptr %this1, i32 0, i32 1
  %0 = load ptr, ptr %OldValue, align 8
  %X = getelementptr inbounds %"struct.llvh::SaveAndRestore.102", ptr %this1, i32 0, i32 0
  %1 = load ptr, ptr %X, align 8
  store ptr %0, ptr %1, align 8
  ret void
}

; Function Attrs: mustprogress nounwind uwtable
define linkonce_odr hidden void @_ZN6hermes6ESTree19visitESTreeChildrenINS_3sem17SemanticValidatorENS0_18WhileStatementNodeEEEvRT_PT0_(ptr noundef nonnull align 8 dereferenceable(168) %v, ptr noundef %node) #0 comdat {
entry:
  %v.addr = alloca ptr, align 8
  %node.addr = alloca ptr, align 8
  store ptr %v, ptr %v.addr, align 8
  store ptr %node, ptr %node.addr, align 8
  %0 = load ptr, ptr %v.addr, align 8
  %1 = load ptr, ptr %node.addr, align 8
  call void @_ZN6hermes6ESTree24RecursiveVisitorDispatchINS_3sem17SemanticValidatorELb1EE13visitChildrenERS3_PNS0_18WhileStatementNodeE(ptr noundef nonnull align 8 dereferenceable(168) %0, ptr noundef %1)
  ret void
}

; Function Attrs: mustprogress nounwind uwtable
define linkonce_odr hidden void @_ZN4llvh14SaveAndRestoreIPN6hermes6ESTree13StatementNodeEEC2ERS4_RKS4_(ptr noundef nonnull align 8 dereferenceable(16) %this, ptr noundef nonnull align 8 dereferenceable(8) %X, ptr noundef nonnull align 8 dereferenceable(8) %NewValue) unnamed_addr #0 comdat align 2 {
entry:
  %this.addr = alloca ptr, align 8
  %X.addr = alloca ptr, align 8
  %NewValue.addr = alloca ptr, align 8
  store ptr %this, ptr %this.addr, align 8
  store ptr %X, ptr %X.addr, align 8
  store ptr %NewValue, ptr %NewValue.addr, align 8
  %this1 = load ptr, ptr %this.addr, align 8
  %X2 = getelementptr inbounds %"struct.llvh::SaveAndRestore.102", ptr %this1, i32 0, i32 0
  %0 = load ptr, ptr %X.addr, align 8
  store ptr %0, ptr %X2, align 8
  %OldValue = getelementptr inbounds %"struct.llvh::SaveAndRestore.102", ptr %this1, i32 0, i32 1
  %1 = load ptr, ptr %X.addr, align 8
  %2 = load ptr, ptr %1, align 8
  store ptr %2, ptr %OldValue, align 8
  %3 = load ptr, ptr %NewValue.addr, align 8
  %4 = load ptr, ptr %3, align 8
  %5 = load ptr, ptr %X.addr, align 8
  store ptr %4, ptr %5, align 8
  ret void
}

; Function Attrs: mustprogress nounwind uwtable
define linkonce_odr hidden void @_ZN4llvh14SaveAndRestoreIPN6hermes6ESTree17LoopStatementNodeEEC2ERS4_RKS4_(ptr noundef nonnull align 8 dereferenceable(16) %this, ptr noundef nonnull align 8 dereferenceable(8) %X, ptr noundef nonnull align 8 dereferenceable(8) %NewValue) unnamed_addr #0 comdat align 2 {
entry:
  %this.addr = alloca ptr, align 8
  %X.addr = alloca ptr, align 8
  %NewValue.addr = alloca ptr, align 8
  store ptr %this, ptr %this.addr, align 8
  store ptr %X, ptr %X.addr, align 8
  store ptr %NewValue, ptr %NewValue.addr, align 8
  %this1 = load ptr, ptr %this.addr, align 8
  %X2 = getelementptr inbounds %"struct.llvh::SaveAndRestore", ptr %this1, i32 0, i32 0
  %0 = load ptr, ptr %X.addr, align 8
  store ptr %0, ptr %X2, align 8
  %OldValue = getelementptr inbounds %"struct.llvh::SaveAndRestore", ptr %this1, i32 0, i32 1
  %1 = load ptr, ptr %X.addr, align 8
  %2 = load ptr, ptr %1, align 8
  store ptr %2, ptr %OldValue, align 8
  %3 = load ptr, ptr %NewValue.addr, align 8
  %4 = load ptr, ptr %3, align 8
  %5 = load ptr, ptr %X.addr, align 8
  store ptr %4, ptr %5, align 8
  ret void
}

; Function Attrs: mustprogress nounwind uwtable
define linkonce_odr hidden void @_ZN6hermes6ESTree19LabelDecorationBase13setLabelIndexEj(ptr noundef nonnull align 4 dereferenceable(4) %this, i32 noundef %labelIndex) #0 comdat align 2 {
entry:
  %this.addr = alloca ptr, align 8
  %labelIndex.addr = alloca i32, align 4
  store ptr %this, ptr %this.addr, align 8
  store i32 %labelIndex, ptr %labelIndex.addr, align 4
  %this1 = load ptr, ptr %this.addr, align 8
  %0 = load i32, ptr %labelIndex.addr, align 4
  %labelIndex_ = getelementptr inbounds %"class.hermes::ESTree::LabelDecorationBase", ptr %this1, i32 0, i32 0
  store i32 %0, ptr %labelIndex_, align 4
  ret void
}

; Function Attrs: mustprogress nounwind uwtable
define linkonce_odr hidden noundef i32 @_ZN6hermes3sem15FunctionContext13allocateLabelEv(ptr noundef nonnull align 8 dereferenceable(200) %this) #0 comdat align 2 {
entry:
  %this.addr = alloca ptr, align 8
  store ptr %this, ptr %this.addr, align 8
  %this1 = load ptr, ptr %this.addr, align 8
  %semInfo = getelementptr inbounds %"class.hermes::sem::FunctionContext", ptr %this1, i32 0, i32 4
  %0 = load ptr, ptr %semInfo, align 8
  %call = call noundef i32 @_ZN6hermes3sem12FunctionInfo13allocateLabelEv(ptr noundef nonnull align 8 dereferenceable(313) %0)
  ret i32 %call
}

; Function Attrs: mustprogress nounwind uwtable
define linkonce_odr hidden noundef ptr @_ZN6hermes3sem17SemanticValidator11curFunctionEv(ptr noundef nonnull align 8 dereferenceable(168) %this) #0 comdat align 2 {
entry:
  %this.addr = alloca ptr, align 8
  store ptr %this, ptr %this.addr, align 8
  %this1 = load ptr, ptr %this.addr, align 8
  %funcCtx_ = getelementptr inbounds %"class.hermes::sem::SemanticValidator", ptr %this1, i32 0, i32 6
  %0 = load ptr, ptr %funcCtx_, align 8
  ret ptr %0
}

; Function Attrs: mustprogress nounwind uwtable
define hidden void @_ZN6hermes3sem17SemanticValidator5visitEPNS_6ESTree18WhileStatementNodeE(ptr noundef nonnull align 8 dereferenceable(168) %this, ptr noundef %loop) #0 align 2 {
entry:
  %this.addr = alloca ptr, align 8
  %loop.addr = alloca ptr, align 8
  %saveLoop = alloca %"struct.llvh::SaveAndRestore", align 8
  %ref.tmp = alloca ptr, align 8
  %saveSwitch = alloca %"struct.llvh::SaveAndRestore.102", align 8
  %ref.tmp5 = alloca ptr, align 8
  store ptr %this, ptr %this.addr, align 8
  store ptr %loop, ptr %loop.addr, align 8
  %this1 = load ptr, ptr %this.addr, align 8
  %0 = load ptr, ptr %loop.addr, align 8
  %add.ptr = getelementptr inbounds i8, ptr %0, i64 48
  %call = call noundef ptr @_ZN6hermes3sem17SemanticValidator11curFunctionEv(ptr noundef nonnull align 8 dereferenceable(168) %this1)
  %call2 = call noundef i32 @_ZN6hermes3sem15FunctionContext13allocateLabelEv(ptr noundef nonnull align 8 dereferenceable(200) %call)
  call void @_ZN6hermes6ESTree19LabelDecorationBase13setLabelIndexEj(ptr noundef nonnull align 4 dereferenceable(4) %add.ptr, i32 noundef %call2)
  %call3 = call noundef ptr @_ZN6hermes3sem17SemanticValidator11curFunctionEv(ptr noundef nonnull align 8 dereferenceable(168) %this1)
  %activeLoop = getelementptr inbounds %"class.hermes::sem::FunctionContext", ptr %call3, i32 0, i32 8
  %1 = load ptr, ptr %loop.addr, align 8
  store ptr %1, ptr %ref.tmp, align 8
  call void @_ZN4llvh14SaveAndRestoreIPN6hermes6ESTree17LoopStatementNodeEEC2ERS4_RKS4_(ptr noundef nonnull align 8 dereferenceable(16) %saveLoop, ptr noundef nonnull align 8 dereferenceable(8) %activeLoop, ptr noundef nonnull align 8 dereferenceable(8) %ref.tmp)
  %call4 = call noundef ptr @_ZN6hermes3sem17SemanticValidator11curFunctionEv(ptr noundef nonnull align 8 dereferenceable(168) %this1)
  %activeSwitchOrLoop = getelementptr inbounds %"class.hermes::sem::FunctionContext", ptr %call4, i32 0, i32 9
  %2 = load ptr, ptr %loop.addr, align 8
  store ptr %2, ptr %ref.tmp5, align 8
  call void @_ZN4llvh14SaveAndRestoreIPN6hermes6ESTree13StatementNodeEEC2ERS4_RKS4_(ptr noundef nonnull align 8 dereferenceable(16) %saveSwitch, ptr noundef nonnull align 8 dereferenceable(8) %activeSwitchOrLoop, ptr noundef nonnull align 8 dereferenceable(8) %ref.tmp5)
  %3 = load ptr, ptr %loop.addr, align 8
  call void @_ZN6hermes6ESTree19visitESTreeChildrenINS_3sem17SemanticValidatorENS0_18WhileStatementNodeEEEvRT_PT0_(ptr noundef nonnull align 8 dereferenceable(168) %this1, ptr noundef %3)
  call void @_ZN4llvh14SaveAndRestoreIPN6hermes6ESTree13StatementNodeEED2Ev(ptr noundef nonnull align 8 dereferenceable(16) %saveSwitch) #11
  call void @_ZN4llvh14SaveAndRestoreIPN6hermes6ESTree17LoopStatementNodeEED2Ev(ptr noundef nonnull align 8 dereferenceable(16) %saveLoop) #11
  ret void
}